; Function Attrs: nounwind uwtable
define ptr @l_Lean_Elab_Mutual_addPreDefsFromUnary___lambda__2___boxed(ptr noundef readonly captures(none) %0) local_unnamed_addr #0 {
  %2 = load ptr, ptr %0, align 8, !tbaa !4
  %3 = getelementptr inbounds nuw i8, ptr %0, i64 8
  %4 = load ptr, ptr %3, align 8, !tbaa !4
  %5 = getelementptr inbounds nuw i8, ptr %0, i64 16
  %6 = load ptr, ptr %5, align 8, !tbaa !4
  %7 = getelementptr inbounds nuw i8, ptr %0, i64 24
  %8 = load ptr, ptr %7, align 8, !tbaa !4
  %9 = getelementptr inbounds nuw i8, ptr %0, i64 32
  %10 = load ptr, ptr %9, align 8, !tbaa !4
  %11 = getelementptr inbounds nuw i8, ptr %0, i64 40
  %12 = load ptr, ptr %11, align 8, !tbaa !4
  %13 = getelementptr inbounds nuw i8, ptr %0, i64 48
  %14 = load ptr, ptr %13, align 8, !tbaa !4
  %15 = getelementptr inbounds nuw i8, ptr %0, i64 56
  %16 = load ptr, ptr %15, align 8, !tbaa !4
  %17 = getelementptr inbounds nuw i8, ptr %0, i64 64
  %18 = load ptr, ptr %17, align 8, !tbaa !4
  %19 = getelementptr inbounds nuw i8, ptr %0, i64 72
  %20 = load ptr, ptr %19, align 8, !tbaa !4
  %21 = getelementptr inbounds nuw i8, ptr %0, i64 80
  %22 = load ptr, ptr %21, align 8, !tbaa !4
  %23 = getelementptr inbounds nuw i8, ptr %0, i64 88
  %24 = load ptr, ptr %23, align 8, !tbaa !4
  %25 = getelementptr inbounds nuw i8, ptr %0, i64 96
  %26 = load ptr, ptr %25, align 8, !tbaa !4
  %27 = getelementptr inbounds nuw i8, ptr %0, i64 104
  %28 = load ptr, ptr %27, align 8, !tbaa !4
  %29 = getelementptr inbounds nuw i8, ptr %0, i64 112
  %30 = load ptr, ptr %29, align 8, !tbaa !4
  %31 = getelementptr inbounds nuw i8, ptr %0, i64 120
  %32 = load ptr, ptr %31, align 8, !tbaa !4
  %33 = getelementptr inbounds nuw i8, ptr %0, i64 128
  %34 = load ptr, ptr %33, align 8, !tbaa !4
  %35 = ptrtoint ptr %4 to i64
  %36 = lshr i64 %35, 1
  %37 = trunc i64 %36 to i8
  %38 = and i64 %35, 1
  %.not = icmp eq i64 %38, 0
  br i1 %.not, label %39, label %lean_dec.exit45

39:                                               ; preds = %1
  %40 = load i32, ptr %4, align 4, !tbaa !8
  %41 = icmp sgt i32 %40, 1
  br i1 %41, label %42, label %44, !prof !11

42:                                               ; preds = %39
  %43 = add nsw i32 %40, -1
  store i32 %43, ptr %4, align 4, !tbaa !8
  br label %lean_dec.exit45

44:                                               ; preds = %39
  %.not.i = icmp eq i32 %40, 0
  br i1 %.not.i, label %lean_dec.exit45, label %45

45:                                               ; preds = %44
  tail call void @lean_dec_ref_cold(ptr noundef nonnull %4) #4
  br label %lean_dec.exit45

lean_dec.exit45:                                  ; preds = %45, %44, %42, %1
  %46 = ptrtoint ptr %6 to i64
  %47 = lshr i64 %46, 1
  %48 = trunc i64 %47 to i8
  %49 = and i64 %46, 1
  %.not54 = icmp eq i64 %49, 0
  br i1 %.not54, label %50, label %lean_dec.exit44

50:                                               ; preds = %lean_dec.exit45
  %51 = load i32, ptr %6, align 4, !tbaa !8
  %52 = icmp sgt i32 %51, 1
  br i1 %52, label %53, label %55, !prof !11

53:                                               ; preds = %50
  %54 = add nsw i32 %51, -1
  store i32 %54, ptr %6, align 4, !tbaa !8
  br label %lean_dec.exit44

55:                                               ; preds = %50
  %.not.i46 = icmp eq i32 %51, 0
  br i1 %.not.i46, label %lean_dec.exit44, label %56

56:                                               ; preds = %55
  tail call void @lean_dec_ref_cold(ptr noundef nonnull %6) #4
  br label %lean_dec.exit44

lean_dec.exit44:                                  ; preds = %56, %55, %53, %lean_dec.exit45
  %57 = ptrtoint ptr %14 to i64
  %58 = lshr i64 %57, 1
  %59 = trunc i64 %58 to i8
  %60 = and i64 %57, 1
  %.not55 = icmp eq i64 %60, 0
  br i1 %.not55, label %61, label %lean_dec.exit43

61:                                               ; preds = %lean_dec.exit44
  %62 = load i32, ptr %14, align 4, !tbaa !8
  %63 = icmp sgt i32 %62, 1
  br i1 %63, label %64, label %66, !prof !11

64:                                               ; preds = %61
  %65 = add nsw i32 %62, -1
  store i32 %65, ptr %14, align 4, !tbaa !8
  br label %lean_dec.exit43

66:                                               ; preds = %61
  %.not.i48 = icmp eq i32 %62, 0
  br i1 %.not.i48, label %lean_dec.exit43, label %67

67:                                               ; preds = %66
  tail call void @lean_dec_ref_cold(ptr noundef nonnull %14) #4
  br label %lean_dec.exit43

lean_dec.exit43:                                  ; preds = %67, %66, %64, %lean_dec.exit44
  %68 = tail call ptr @l_Lean_Elab_Mutual_addPreDefsFromUnary___lambda__2(ptr noundef %2, i8 noundef zeroext %37, i8 noundef zeroext %48, ptr noundef %8, ptr noundef %10, ptr noundef %12, i8 noundef zeroext %59, ptr noundef %16, ptr noundef %18, ptr noundef %20, ptr noundef %22, ptr noundef %24, ptr noundef %26, ptr poison, ptr noundef %30, ptr noundef %32, ptr noundef %34)
  %69 = ptrtoint ptr %28 to i64
  %70 = and i64 %69, 1
  %.not56 = icmp eq i64 %70, 0
  br i1 %.not56, label %71, label %lean_dec.exit42

71:                                               ; preds = %lean_dec.exit43
  %72 = load i32, ptr %28, align 4, !tbaa !8
  %73 = icmp sgt i32 %72, 1
  br i1 %73, label %74, label %76, !prof !11

74:                                               ; preds = %71
  %75 = add nsw i32 %72, -1
  store i32 %75, ptr %28, align 4, !tbaa !8
  br label %lean_dec.exit42

76:                                               ; preds = %71
  %.not.i50 = icmp eq i32 %72, 0
  br i1 %.not.i50, label %lean_dec.exit42, label %77

77:                                               ; preds = %76
  tail call void @lean_dec_ref_cold(ptr noundef nonnull %28) #4
  br label %lean_dec.exit42

lean_dec.exit42:                                  ; preds = %77, %76, %74, %lean_dec.exit43
  %78 = ptrtoint ptr %24 to i64
  %79 = and i64 %78, 1
  %.not57 = icmp eq i64 %79, 0
  br i1 %.not57, label %80, label %lean_dec.exit

80:                                               ; preds = %lean_dec.exit42
  %81 = load i32, ptr %24, align 4, !tbaa !8
  %82 = icmp sgt i32 %81, 1
  br i1 %82, label %83, label %85, !prof !11

83:                                               ; preds = %80
  %84 = add nsw i32 %81, -1
  store i32 %84, ptr %24, align 4, !tbaa !8
  br label %lean_dec.exit

85:                                               ; preds = %80
  %.not.i52 = icmp eq i32 %81, 0
  br i1 %.not.i52, label %lean_dec.exit, label %86

86:                                               ; preds = %85
  tail call void @lean_dec_ref_cold(ptr noundef nonnull %24) #4
  br label %lean_dec.exit

lean_dec.exit:                                    ; preds = %86, %85, %83, %lean_dec.exit42
  ret ptr %68
}